; Function Attrs: nounwind uwtable
define dso_local i32 @get_equality_op_for_ordering_op(i32 noundef %0, ptr noundef writeonly captures(address_is_null) %1) local_unnamed_addr #0 {
  %3 = zext i32 %0 to i64
  %4 = tail call ptr @SearchSysCacheList(i32 noundef 3, i32 noundef 1, i64 noundef %3, i64 noundef 0, i64 noundef 0) #8
  %5 = getelementptr inbounds nuw i8, ptr %4, i64 64
  %6 = load i32, ptr %5, align 8
  %7 = icmp sgt i32 %6, 0
  br i1 %7, label %.lr.ph.i, label %get_ordering_op_properties.exit.thread

.lr.ph.i:                                         ; preds = %2
  %8 = getelementptr inbounds nuw i8, ptr %4, i64 80
  %wide.trip.count.i = zext nneg i32 %6 to i64
  br label %9

9:                                                ; preds = %28, %.lr.ph.i
  %indvars.iv.i = phi i64 [ 0, %.lr.ph.i ], [ %indvars.iv.next.i, %28 ]
  %10 = getelementptr inbounds nuw [0 x ptr], ptr %8, i64 0, i64 %indvars.iv.i
  %11 = load ptr, ptr %10, align 8
  %12 = getelementptr i8, ptr %11, i64 80
  %.val.i = load ptr, ptr %12, align 8
  %13 = getelementptr inbounds nuw i8, ptr %.val.i, i64 22
  %14 = load i8, ptr %13, align 2
  %15 = zext i8 %14 to i64
  %16 = getelementptr inbounds nuw i8, ptr %.val.i, i64 %15
  %17 = getelementptr inbounds nuw i8, ptr %16, i64 24
  %18 = load i32, ptr %17, align 4
  %.not.i = icmp eq i32 %18, 403
  br i1 %.not.i, label %19, label %28

19:                                               ; preds = %9
  %20 = getelementptr inbounds nuw i8, ptr %16, i64 16
  %21 = load i16, ptr %20, align 4
  switch i16 %21, label %28 [
    i16 1, label %22
    i16 5, label %22
  ]

22:                                               ; preds = %19, %19
  %23 = getelementptr inbounds nuw i8, ptr %16, i64 8
  %24 = load i32, ptr %23, align 4
  %25 = getelementptr inbounds nuw i8, ptr %16, i64 12
  %26 = load i32, ptr %25, align 4
  %27 = icmp eq i32 %24, %26
  br i1 %27, label %29, label %28

28:                                               ; preds = %22, %19, %9
  %indvars.iv.next.i = add nuw nsw i64 %indvars.iv.i, 1
  %exitcond.not.i = icmp eq i64 %indvars.iv.next.i, %wide.trip.count.i
  br i1 %exitcond.not.i, label %get_ordering_op_properties.exit.thread, label %9, !llvm.loop !4

get_ordering_op_properties.exit.thread:           ; preds = %28, %2
  tail call void @ReleaseCatCacheList(ptr noundef nonnull %4) #8
  br label %46

29:                                               ; preds = %22
  %30 = getelementptr inbounds nuw i8, ptr %16, i64 4
  %31 = load i32, ptr %30, align 4
  tail call void @ReleaseCatCacheList(ptr noundef nonnull %4) #8
  %32 = zext i32 %31 to i64
  %33 = zext i32 %24 to i64
  %34 = tail call ptr @SearchSysCache4(i32 noundef 4, i64 noundef %32, i64 noundef %33, i64 noundef %33, i64 noundef 3) #8
  %.not.i4 = icmp eq ptr %34, null
  br i1 %.not.i4, label %get_opfamily_member.exit, label %35

35:                                               ; preds = %29
  %36 = getelementptr i8, ptr %34, i64 16
  %.val.i5 = load ptr, ptr %36, align 8
  %37 = getelementptr inbounds nuw i8, ptr %.val.i5, i64 22
  %38 = load i8, ptr %37, align 2
  %39 = zext i8 %38 to i64
  %40 = getelementptr inbounds nuw i8, ptr %.val.i5, i64 %39
  %41 = getelementptr inbounds nuw i8, ptr %40, i64 20
  %42 = load i32, ptr %41, align 4
  tail call void @ReleaseSysCache(ptr noundef nonnull %34) #8
  br label %get_opfamily_member.exit

get_opfamily_member.exit:                         ; preds = %29, %35
  %.0.i = phi i32 [ %42, %35 ], [ 0, %29 ]
  %.not = icmp eq ptr %1, null
  br i1 %.not, label %46, label %43

43:                                               ; preds = %get_opfamily_member.exit
  %44 = icmp eq i16 %21, 5
  %45 = zext i1 %44 to i8
  store i8 %45, ptr %1, align 1
  br label %46

46:                                               ; preds = %get_ordering_op_properties.exit.thread, %get_opfamily_member.exit, %43
  %.0 = phi i32 [ %.0.i, %43 ], [ %.0.i, %get_opfamily_member.exit ], [ 0, %get_ordering_op_properties.exit.thread ]
  ret i32 %.0
}